target datalayout = "e-m:e-p270:32:32-p271:32:32-p272:64:64-i64:64-i128:128-f80:128-n8:16:32:64-S128"
target triple = "x86_64-pc-linux-gnu"

%struct.anon = type { i64, i64, i64, i64, i64, double, double, ptr, [2 x double], [2 x double], [2 x double], [20 x [20 x ptr]], [20 x [20 x ptr]], ptr, ptr, ptr }
%struct._generic_N_Vector = type { ptr, ptr, ptr }
%struct._N_VectorContent_Serial = type { i64, i32, ptr }

; Function Attrs: nounwind uwtable
define internal double @dotprod(i64 noundef %0, ptr noundef %1, ptr noundef %2) #0 {
  %4 = alloca i64, align 8
  %5 = alloca ptr, align 8
  %6 = alloca ptr, align 8
  %7 = alloca i64, align 8
  %8 = alloca ptr, align 8
  %9 = alloca ptr, align 8
  %10 = alloca double, align 8
  store i64 %0, ptr %4, align 8, !tbaa !41
  store ptr %1, ptr %5, align 8, !tbaa !42
  store ptr %2, ptr %6, align 8, !tbaa !42
  call void @llvm.lifetime.start.p0(i64 8, ptr %7) #6
  call void @llvm.lifetime.start.p0(i64 8, ptr %8) #6
  call void @llvm.lifetime.start.p0(i64 8, ptr %9) #6
  call void @llvm.lifetime.start.p0(i64 8, ptr %10) #6
  store double 0.000000e+00, ptr %10, align 8, !tbaa !26
  %11 = load ptr, ptr %5, align 8, !tbaa !42
  store ptr %11, ptr %8, align 8, !tbaa !42
  %12 = load ptr, ptr %6, align 8, !tbaa !42
  store ptr %12, ptr %9, align 8, !tbaa !42
  store i64 0, ptr %7, align 8, !tbaa !41
  br label %13

13:                                               ; preds = %26, %3
  %14 = load i64, ptr %7, align 8, !tbaa !41
  %15 = load i64, ptr %4, align 8, !tbaa !41
  %16 = icmp slt i64 %14, %15
  br i1 %16, label %17, label %29

17:                                               ; preds = %13
  %18 = load ptr, ptr %8, align 8, !tbaa !42
  %19 = getelementptr inbounds nuw double, ptr %18, i32 1
  store ptr %19, ptr %8, align 8, !tbaa !42
  %20 = load double, ptr %18, align 8, !tbaa !26
  %21 = load ptr, ptr %9, align 8, !tbaa !42
  %22 = getelementptr inbounds nuw double, ptr %21, i32 1
  store ptr %22, ptr %9, align 8, !tbaa !42
  %23 = load double, ptr %21, align 8, !tbaa !26
  %24 = load double, ptr %10, align 8, !tbaa !26
  %25 = call double @llvm.fmuladd.f64(double %20, double %23, double %24)
  store double %25, ptr %10, align 8, !tbaa !26
  br label %26

26:                                               ; preds = %17
  %27 = load i64, ptr %7, align 8, !tbaa !41
  %28 = add nsw i64 %27, 1
  store i64 %28, ptr %7, align 8, !tbaa !41
  br label %13

29:                                               ; preds = %13
  %30 = load double, ptr %10, align 8, !tbaa !26
  call void @llvm.lifetime.end.p0(i64 8, ptr %10) #6
  call void @llvm.lifetime.end.p0(i64 8, ptr %9) #6
  call void @llvm.lifetime.end.p0(i64 8, ptr %8) #6
  call void @llvm.lifetime.end.p0(i64 8, ptr %7) #6
  ret double %30
}

; Function Attrs: nounwind uwtable
define internal void @WebRates(double noundef %0, double noundef %1, ptr noundef %2, ptr noundef %3, ptr noundef %4) #0 {
  %6 = alloca double, align 8
  %7 = alloca double, align 8
  %8 = alloca ptr, align 8
  %9 = alloca ptr, align 8
  %10 = alloca ptr, align 8
  %11 = alloca i32, align 4
  %12 = alloca double, align 8
  store double %0, ptr %6, align 8, !tbaa !26
  store double %1, ptr %7, align 8, !tbaa !26
  store ptr %2, ptr %8, align 8, !tbaa !42
  store ptr %3, ptr %9, align 8, !tbaa !42
  store ptr %4, ptr %10, align 8, !tbaa !4
  call void @llvm.lifetime.start.p0(i64 4, ptr %11) #6
  call void @llvm.lifetime.start.p0(i64 8, ptr %12) #6
  store i32 0, ptr %11, align 4, !tbaa !12
  br label %13

13:                                               ; preds = %30, %5
  %14 = load i32, ptr %11, align 4, !tbaa !12
  %15 = icmp slt i32 %14, 2
  br i1 %15, label %16, label %33

16:                                               ; preds = %13
  %17 = load ptr, ptr %8, align 8, !tbaa !42
  %18 = load ptr, ptr %10, align 8, !tbaa !4
  %19 = getelementptr inbounds nuw %struct.anon, ptr %18, i32 0, i32 7
  %20 = load ptr, ptr %19, align 8, !tbaa !21
  %21 = load i32, ptr %11, align 4, !tbaa !12
  %22 = sext i32 %21 to i64
  %23 = getelementptr inbounds ptr, ptr %20, i64 %22
  %24 = load ptr, ptr %23, align 8, !tbaa !42
  %25 = call double @dotprod(i64 noundef 2, ptr noundef %17, ptr noundef %24)
  %26 = load ptr, ptr %9, align 8, !tbaa !42
  %27 = load i32, ptr %11, align 4, !tbaa !12
  %28 = sext i32 %27 to i64
  %29 = getelementptr inbounds double, ptr %26, i64 %28
  store double %25, ptr %29, align 8, !tbaa !26
  br label %30

30:                                               ; preds = %16
  %31 = load i32, ptr %11, align 4, !tbaa !12
  %32 = add nsw i32 %31, 1
  store i32 %32, ptr %11, align 4, !tbaa !12
  br label %13

33:                                               ; preds = %13
  %34 = load double, ptr %6, align 8, !tbaa !26
  %35 = fmul double 5.000000e+01, %34
  %36 = load double, ptr %7, align 8, !tbaa !26
  %37 = call double @llvm.fmuladd.f64(double %35, double %36, double 1.000000e+00)
  %38 = load double, ptr %6, align 8, !tbaa !26
  %39 = fmul double 0x402921FB54442D28, %38
  %40 = call double @sin(double noundef %39) #6, !tbaa !12
  %41 = fmul double 1.000000e+03, %40
  %42 = load double, ptr %7, align 8, !tbaa !26
  %43 = fmul double 0x402921FB54442D28, %42
  %44 = call double @sin(double noundef %43) #6, !tbaa !12
  %45 = call double @llvm.fmuladd.f64(double %41, double %44, double %37)
  store double %45, ptr %12, align 8, !tbaa !26
  store i32 0, ptr %11, align 4, !tbaa !12
  br label %46

46:                                               ; preds = %73, %33
  %47 = load i32, ptr %11, align 4, !tbaa !12
  %48 = icmp slt i32 %47, 2
  br i1 %48, label %49, label %76

49:                                               ; preds = %46
  %50 = load ptr, ptr %8, align 8, !tbaa !42
  %51 = load i32, ptr %11, align 4, !tbaa !12
  %52 = sext i32 %51 to i64
  %53 = getelementptr inbounds double, ptr %50, i64 %52
  %54 = load double, ptr %53, align 8, !tbaa !26
  %55 = load ptr, ptr %10, align 8, !tbaa !4
  %56 = getelementptr inbounds nuw %struct.anon, ptr %55, i32 0, i32 10
  %57 = load i32, ptr %11, align 4, !tbaa !12
  %58 = sext i32 %57 to i64
  %59 = getelementptr inbounds [2 x double], ptr %56, i64 0, i64 %58
  %60 = load double, ptr %59, align 8, !tbaa !26
  %61 = load double, ptr %12, align 8, !tbaa !26
  %62 = load ptr, ptr %9, align 8, !tbaa !42
  %63 = load i32, ptr %11, align 4, !tbaa !12
  %64 = sext i32 %63 to i64
  %65 = getelementptr inbounds double, ptr %62, i64 %64
  %66 = load double, ptr %65, align 8, !tbaa !26
  %67 = call double @llvm.fmuladd.f64(double %60, double %61, double %66)
  %68 = fmul double %54, %67
  %69 = load ptr, ptr %9, align 8, !tbaa !42
  %70 = load i32, ptr %11, align 4, !tbaa !12
  %71 = sext i32 %70 to i64
  %72 = getelementptr inbounds double, ptr %69, i64 %71
  store double %68, ptr %72, align 8, !tbaa !26
  br label %73

73:                                               ; preds = %49
  %74 = load i32, ptr %11, align 4, !tbaa !12
  %75 = add nsw i32 %74, 1
  store i32 %75, ptr %11, align 4, !tbaa !12
  br label %46

76:                                               ; preds = %46
  call void @llvm.lifetime.end.p0(i64 8, ptr %12) #6
  call void @llvm.lifetime.end.p0(i64 4, ptr %11) #6
  ret void
}

; Function Attrs: nounwind uwtable
define internal void @Fweb(double noundef %0, ptr noundef %1, ptr noundef %2, ptr noundef %3) #0 {
  %5 = alloca double, align 8
  %6 = alloca ptr, align 8
  %7 = alloca ptr, align 8
  %8 = alloca ptr, align 8
  %9 = alloca i64, align 8
  %10 = alloca i64, align 8
  %11 = alloca i64, align 8
  %12 = alloca i64, align 8
  %13 = alloca i64, align 8
  %14 = alloca i64, align 8
  %15 = alloca i64, align 8
  %16 = alloca double, align 8
  %17 = alloca double, align 8
  %18 = alloca ptr, align 8
  %19 = alloca ptr, align 8
  %20 = alloca ptr, align 8
  %21 = alloca double, align 8
  %22 = alloca double, align 8
  %23 = alloca double, align 8
  %24 = alloca double, align 8
  store double %0, ptr %5, align 8, !tbaa !26
  store ptr %1, ptr %6, align 8, !tbaa !8
  store ptr %2, ptr %7, align 8, !tbaa !8
  store ptr %3, ptr %8, align 8, !tbaa !4
  call void @llvm.lifetime.start.p0(i64 8, ptr %9) #6
  call void @llvm.lifetime.start.p0(i64 8, ptr %10) #6
  call void @llvm.lifetime.start.p0(i64 8, ptr %11) #6
  call void @llvm.lifetime.start.p0(i64 8, ptr %12) #6
  call void @llvm.lifetime.start.p0(i64 8, ptr %13) #6
  call void @llvm.lifetime.start.p0(i64 8, ptr %14) #6
  call void @llvm.lifetime.start.p0(i64 8, ptr %15) #6
  call void @llvm.lifetime.start.p0(i64 8, ptr %16) #6
  call void @llvm.lifetime.start.p0(i64 8, ptr %17) #6
  call void @llvm.lifetime.start.p0(i64 8, ptr %18) #6
  call void @llvm.lifetime.start.p0(i64 8, ptr %19) #6
  call void @llvm.lifetime.start.p0(i64 8, ptr %20) #6
  call void @llvm.lifetime.start.p0(i64 8, ptr %21) #6
  call void @llvm.lifetime.start.p0(i64 8, ptr %22) #6
  call void @llvm.lifetime.start.p0(i64 8, ptr %23) #6
  call void @llvm.lifetime.start.p0(i64 8, ptr %24) #6
  store i64 0, ptr %10, align 8, !tbaa !41
  br label %25

25:                                               ; preds = %188, %4
  %26 = load i64, ptr %10, align 8, !tbaa !41
  %27 = icmp slt i64 %26, 20
  br i1 %27, label %28, label %191

28:                                               ; preds = %25
  %29 = load ptr, ptr %8, align 8, !tbaa !4
  %30 = getelementptr inbounds nuw %struct.anon, ptr %29, i32 0, i32 6
  %31 = load double, ptr %30, align 8, !tbaa !39
  %32 = load i64, ptr %10, align 8, !tbaa !41
  %33 = sitofp i64 %32 to double
  %34 = fmul double %31, %33
  store double %34, ptr %17, align 8, !tbaa !26
  %35 = load i64, ptr %10, align 8, !tbaa !41
  %36 = icmp ne i64 %35, 19
  %37 = select i1 %36, i32 40, i32 -40
  %38 = sext i32 %37 to i64
  store i64 %38, ptr %12, align 8, !tbaa !41
  %39 = load i64, ptr %10, align 8, !tbaa !41
  %40 = icmp ne i64 %39, 0
  %41 = select i1 %40, i32 40, i32 -40
  %42 = sext i32 %41 to i64
  store i64 %42, ptr %13, align 8, !tbaa !41
  store i64 0, ptr %9, align 8, !tbaa !41
  br label %43

43:                                               ; preds = %184, %28
  %44 = load i64, ptr %9, align 8, !tbaa !41
  %45 = icmp slt i64 %44, 20
  br i1 %45, label %46, label %187

46:                                               ; preds = %43
  %47 = load ptr, ptr %8, align 8, !tbaa !4
  %48 = getelementptr inbounds nuw %struct.anon, ptr %47, i32 0, i32 5
  %49 = load double, ptr %48, align 8, !tbaa !38
  %50 = load i64, ptr %9, align 8, !tbaa !41
  %51 = sitofp i64 %50 to double
  %52 = fmul double %49, %51
  store double %52, ptr %16, align 8, !tbaa !26
  %53 = load i64, ptr %9, align 8, !tbaa !41
  %54 = icmp ne i64 %53, 19
  %55 = select i1 %54, i32 2, i32 -2
  %56 = sext i32 %55 to i64
  store i64 %56, ptr %14, align 8, !tbaa !41
  %57 = load i64, ptr %9, align 8, !tbaa !41
  %58 = icmp ne i64 %57, 0
  %59 = select i1 %58, i32 2, i32 -2
  %60 = sext i32 %59 to i64
  store i64 %60, ptr %15, align 8, !tbaa !41
  %61 = load ptr, ptr %6, align 8, !tbaa !8
  %62 = getelementptr inbounds nuw %struct._generic_N_Vector, ptr %61, i32 0, i32 0
  %63 = load ptr, ptr %62, align 8, !tbaa !44
  %64 = getelementptr inbounds nuw %struct._N_VectorContent_Serial, ptr %63, i32 0, i32 2
  %65 = load ptr, ptr %64, align 8, !tbaa !47
  %66 = load i64, ptr %9, align 8, !tbaa !41
  %67 = mul nsw i64 %66, 2
  %68 = mul nsw i64 %67, 1
  %69 = load i64, ptr %10, align 8, !tbaa !41
  %70 = mul nsw i64 %69, 40
  %71 = add nsw i64 %68, %70
  %72 = getelementptr inbounds double, ptr %65, i64 %71
  store ptr %72, ptr %18, align 8, !tbaa !42
  %73 = load ptr, ptr %8, align 8, !tbaa !4
  %74 = getelementptr inbounds nuw %struct.anon, ptr %73, i32 0, i32 13
  %75 = load ptr, ptr %74, align 8, !tbaa !16
  %76 = getelementptr inbounds nuw %struct._generic_N_Vector, ptr %75, i32 0, i32 0
  %77 = load ptr, ptr %76, align 8, !tbaa !44
  %78 = getelementptr inbounds nuw %struct._N_VectorContent_Serial, ptr %77, i32 0, i32 2
  %79 = load ptr, ptr %78, align 8, !tbaa !47
  %80 = load i64, ptr %9, align 8, !tbaa !41
  %81 = mul nsw i64 %80, 2
  %82 = mul nsw i64 %81, 1
  %83 = load i64, ptr %10, align 8, !tbaa !41
  %84 = mul nsw i64 %83, 40
  %85 = add nsw i64 %82, %84
  %86 = getelementptr inbounds double, ptr %79, i64 %85
  store ptr %86, ptr %19, align 8, !tbaa !42
  %87 = load ptr, ptr %7, align 8, !tbaa !8
  %88 = getelementptr inbounds nuw %struct._generic_N_Vector, ptr %87, i32 0, i32 0
  %89 = load ptr, ptr %88, align 8, !tbaa !44
  %90 = getelementptr inbounds nuw %struct._N_VectorContent_Serial, ptr %89, i32 0, i32 2
  %91 = load ptr, ptr %90, align 8, !tbaa !47
  %92 = load i64, ptr %9, align 8, !tbaa !41
  %93 = mul nsw i64 %92, 2
  %94 = mul nsw i64 %93, 1
  %95 = load i64, ptr %10, align 8, !tbaa !41
  %96 = mul nsw i64 %95, 40
  %97 = add nsw i64 %94, %96
  %98 = getelementptr inbounds double, ptr %91, i64 %97
  store ptr %98, ptr %20, align 8, !tbaa !42
  %99 = load double, ptr %16, align 8, !tbaa !26
  %100 = load double, ptr %17, align 8, !tbaa !26
  %101 = load ptr, ptr %18, align 8, !tbaa !42
  %102 = load ptr, ptr %19, align 8, !tbaa !42
  %103 = load ptr, ptr %8, align 8, !tbaa !4
  call void @WebRates(double noundef %99, double noundef %100, ptr noundef %101, ptr noundef %102, ptr noundef %103)
  store i64 0, ptr %11, align 8, !tbaa !41
  br label %104

104:                                              ; preds = %180, %46
  %105 = load i64, ptr %11, align 8, !tbaa !41
  %106 = icmp slt i64 %105, 2
  br i1 %106, label %107, label %183

107:                                              ; preds = %104
  %108 = load ptr, ptr %18, align 8, !tbaa !42
  %109 = load i64, ptr %11, align 8, !tbaa !41
  %110 = getelementptr inbounds double, ptr %108, i64 %109
  %111 = load double, ptr %110, align 8, !tbaa !26
  %112 = load ptr, ptr %18, align 8, !tbaa !42
  %113 = load i64, ptr %13, align 8, !tbaa !41
  %114 = sub i64 0, %113
  %115 = getelementptr inbounds double, ptr %112, i64 %114
  %116 = load i64, ptr %11, align 8, !tbaa !41
  %117 = getelementptr inbounds double, ptr %115, i64 %116
  %118 = load double, ptr %117, align 8, !tbaa !26
  %119 = fsub double %111, %118
  store double %119, ptr %21, align 8, !tbaa !26
  %120 = load ptr, ptr %18, align 8, !tbaa !42
  %121 = load i64, ptr %12, align 8, !tbaa !41
  %122 = getelementptr inbounds double, ptr %120, i64 %121
  %123 = load i64, ptr %11, align 8, !tbaa !41
  %124 = getelementptr inbounds double, ptr %122, i64 %123
  %125 = load double, ptr %124, align 8, !tbaa !26
  %126 = load ptr, ptr %18, align 8, !tbaa !42
  %127 = load i64, ptr %11, align 8, !tbaa !41
  %128 = getelementptr inbounds double, ptr %126, i64 %127
  %129 = load double, ptr %128, align 8, !tbaa !26
  %130 = fsub double %125, %129
  store double %130, ptr %22, align 8, !tbaa !26
  %131 = load ptr, ptr %18, align 8, !tbaa !42
  %132 = load i64, ptr %11, align 8, !tbaa !41
  %133 = getelementptr inbounds double, ptr %131, i64 %132
  %134 = load double, ptr %133, align 8, !tbaa !26
  %135 = load ptr, ptr %18, align 8, !tbaa !42
  %136 = load i64, ptr %15, align 8, !tbaa !41
  %137 = sub i64 0, %136
  %138 = getelementptr inbounds double, ptr %135, i64 %137
  %139 = load i64, ptr %11, align 8, !tbaa !41
  %140 = getelementptr inbounds double, ptr %138, i64 %139
  %141 = load double, ptr %140, align 8, !tbaa !26
  %142 = fsub double %134, %141
  store double %142, ptr %23, align 8, !tbaa !26
  %143 = load ptr, ptr %18, align 8, !tbaa !42
  %144 = load i64, ptr %14, align 8, !tbaa !41
  %145 = getelementptr inbounds double, ptr %143, i64 %144
  %146 = load i64, ptr %11, align 8, !tbaa !41
  %147 = getelementptr inbounds double, ptr %145, i64 %146
  %148 = load double, ptr %147, align 8, !tbaa !26
  %149 = load ptr, ptr %18, align 8, !tbaa !42
  %150 = load i64, ptr %11, align 8, !tbaa !41
  %151 = getelementptr inbounds double, ptr %149, i64 %150
  %152 = load double, ptr %151, align 8, !tbaa !26
  %153 = fsub double %148, %152
  store double %153, ptr %24, align 8, !tbaa !26
  %154 = load ptr, ptr %8, align 8, !tbaa !4
  %155 = getelementptr inbounds nuw %struct.anon, ptr %154, i32 0, i32 9
  %156 = load i64, ptr %11, align 8, !tbaa !41
  %157 = getelementptr inbounds [2 x double], ptr %155, i64 0, i64 %156
  %158 = load double, ptr %157, align 8, !tbaa !26
  %159 = load double, ptr %22, align 8, !tbaa !26
  %160 = load double, ptr %21, align 8, !tbaa !26
  %161 = fsub double %159, %160
  %162 = load ptr, ptr %8, align 8, !tbaa !4
  %163 = getelementptr inbounds nuw %struct.anon, ptr %162, i32 0, i32 8
  %164 = load i64, ptr %11, align 8, !tbaa !41
  %165 = getelementptr inbounds [2 x double], ptr %163, i64 0, i64 %164
  %166 = load double, ptr %165, align 8, !tbaa !26
  %167 = load double, ptr %24, align 8, !tbaa !26
  %168 = load double, ptr %23, align 8, !tbaa !26
  %169 = fsub double %167, %168
  %170 = fmul double %166, %169
  %171 = call double @llvm.fmuladd.f64(double %158, double %161, double %170)
  %172 = load ptr, ptr %19, align 8, !tbaa !42
  %173 = load i64, ptr %11, align 8, !tbaa !41
  %174 = getelementptr inbounds double, ptr %172, i64 %173
  %175 = load double, ptr %174, align 8, !tbaa !26
  %176 = fadd double %171, %175
  %177 = load ptr, ptr %20, align 8, !tbaa !42
  %178 = load i64, ptr %11, align 8, !tbaa !41
  %179 = getelementptr inbounds double, ptr %177, i64 %178
  store double %176, ptr %179, align 8, !tbaa !26
  br label %180

180:                                              ; preds = %107
  %181 = load i64, ptr %11, align 8, !tbaa !41
  %182 = add nsw i64 %181, 1
  store i64 %182, ptr %11, align 8, !tbaa !41
  br label %104

183:                                              ; preds = %104
  br label %184

184:                                              ; preds = %183
  %185 = load i64, ptr %9, align 8, !tbaa !41
  %186 = add nsw i64 %185, 1
  store i64 %186, ptr %9, align 8, !tbaa !41
  br label %43

187:                                              ; preds = %43
  br label %188

188:                                              ; preds = %187
  %189 = load i64, ptr %10, align 8, !tbaa !41
  %190 = add nsw i64 %189, 1
  store i64 %190, ptr %10, align 8, !tbaa !41
  br label %25

191:                                              ; preds = %25
  call void @llvm.lifetime.end.p0(i64 8, ptr %24) #6
  call void @llvm.lifetime.end.p0(i64 8, ptr %23) #6
  call void @llvm.lifetime.end.p0(i64 8, ptr %22) #6
  call void @llvm.lifetime.end.p0(i64 8, ptr %21) #6
  call void @llvm.lifetime.end.p0(i64 8, ptr %20) #6
  call void @llvm.lifetime.end.p0(i64 8, ptr %19) #6
  call void @llvm.lifetime.end.p0(i64 8, ptr %18) #6
  call void @llvm.lifetime.end.p0(i64 8, ptr %17) #6
  call void @llvm.lifetime.end.p0(i64 8, ptr %16) #6
  call void @llvm.lifetime.end.p0(i64 8, ptr %15) #6
  call void @llvm.lifetime.end.p0(i64 8, ptr %14) #6
  call void @llvm.lifetime.end.p0(i64 8, ptr %13) #6
  call void @llvm.lifetime.end.p0(i64 8, ptr %12) #6
  call void @llvm.lifetime.end.p0(i64 8, ptr %11) #6
  call void @llvm.lifetime.end.p0(i64 8, ptr %10) #6
  call void @llvm.lifetime.end.p0(i64 8, ptr %9) #6
  ret void
}