; Function Attrs: nofree nounwind memory(readwrite, inaccessiblemem: write) uwtable
define internal fastcc void @Fweb(ptr noundef readonly captures(none) %0, ptr noundef readonly captures(none) %1, ptr noundef readonly captures(none) %2) unnamed_addr #6 {
  %4 = getelementptr inbounds nuw i8, ptr %2, i64 48
  %5 = getelementptr inbounds nuw i8, ptr %2, i64 40
  %6 = load ptr, ptr %0, align 8, !tbaa !34
  %7 = getelementptr inbounds nuw i8, ptr %6, i64 16
  %8 = load ptr, ptr %7, align 8, !tbaa !37
  %9 = getelementptr inbounds nuw i8, ptr %2, i64 6512
  %10 = load ptr, ptr %9, align 8, !tbaa !11
  %11 = load ptr, ptr %10, align 8, !tbaa !34
  %12 = getelementptr inbounds nuw i8, ptr %11, i64 16
  %13 = load ptr, ptr %12, align 8, !tbaa !37
  %14 = load ptr, ptr %1, align 8, !tbaa !34
  %15 = getelementptr inbounds nuw i8, ptr %14, i64 16
  %16 = load ptr, ptr %15, align 8, !tbaa !37
  %17 = getelementptr inbounds nuw i8, ptr %2, i64 56
  %18 = load ptr, ptr %17, align 8, !tbaa !17
  %19 = getelementptr inbounds nuw i8, ptr %2, i64 96
  %20 = getelementptr inbounds nuw i8, ptr %2, i64 104
  %21 = getelementptr inbounds nuw i8, ptr %2, i64 80
  %22 = getelementptr inbounds nuw i8, ptr %2, i64 64
  br label %23

23:                                               ; preds = %3, %105
  %.05967 = phi i64 [ 0, %3 ], [ %106, %105 ]
  %24 = load double, ptr %4, align 8, !tbaa !27
  %25 = uitofp nneg i64 %.05967 to double
  %26 = fmul double %24, %25
  %.not = icmp eq i64 %.05967, 19
  %27 = select i1 %.not, i64 -40, i64 40
  %.not61 = icmp eq i64 %.05967, 0
  %.neg = select i1 %.not61, i64 40, i64 -40
  %28 = mul nuw nsw i64 %.05967, 40
  %29 = fmul double %26, 0x402921FB54442D28
  br label %30

30:                                               ; preds = %23, %103
  %.066 = phi i64 [ 0, %23 ], [ %104, %103 ]
  %31 = load double, ptr %5, align 8, !tbaa !26
  %32 = uitofp nneg i64 %.066 to double
  %.not62 = icmp eq i64 %.066, 19
  %.not63 = icmp eq i64 %.066, 0
  %33 = shl nuw nsw i64 %.066, 1
  %34 = add nuw nsw i64 %33, %28
  %35 = getelementptr inbounds nuw double, ptr %8, i64 %34
  %36 = getelementptr inbounds nuw double, ptr %13, i64 %34
  br label %37

37:                                               ; preds = %dotprod.exit.i, %30
  %38 = phi i1 [ true, %30 ], [ false, %dotprod.exit.i ]
  %indvars.iv.i = phi i64 [ 0, %30 ], [ 1, %dotprod.exit.i ]
  %39 = getelementptr inbounds nuw ptr, ptr %18, i64 %indvars.iv.i
  %40 = load ptr, ptr %39, align 8, !tbaa !29
  br label %41

41:                                               ; preds = %41, %37
  %.014.i.i = phi double [ 0.000000e+00, %37 ], [ %47, %41 ]
  %.0813.i.i = phi ptr [ %40, %37 ], [ %45, %41 ]
  %.0912.i.i = phi ptr [ %35, %37 ], [ %43, %41 ]
  %42 = phi i1 [ true, %37 ], [ false, %41 ]
  %43 = getelementptr inbounds nuw i8, ptr %.0912.i.i, i64 8
  %44 = load double, ptr %.0912.i.i, align 8, !tbaa !31
  %45 = getelementptr inbounds nuw i8, ptr %.0813.i.i, i64 8
  %46 = load double, ptr %.0813.i.i, align 8, !tbaa !31
  %47 = tail call double @llvm.fmuladd.f64(double %44, double %46, double %.014.i.i)
  br i1 %42, label %41, label %dotprod.exit.i

dotprod.exit.i:                                   ; preds = %41
  %48 = getelementptr inbounds nuw double, ptr %36, i64 %indvars.iv.i
  store double %47, ptr %48, align 8, !tbaa !31
  br i1 %38, label %37, label %WebRates.exit.critedge

WebRates.exit.critedge:                           ; preds = %dotprod.exit.i
  %49 = fmul double %31, %32
  %50 = select i1 %.not62, i64 -2, i64 2
  %.neg64 = select i1 %.not63, i64 2, i64 -2
  %51 = getelementptr inbounds nuw double, ptr %16, i64 %34
  %52 = fmul double %49, 5.000000e+01
  %53 = tail call double @llvm.fmuladd.f64(double %52, double %26, double 1.000000e+00)
  %54 = fmul double %49, 0x402921FB54442D28
  %55 = tail call double @sin(double noundef %54) #12, !tbaa !40
  %56 = fmul double %55, 1.000000e+03
  %57 = tail call double @sin(double noundef %29) #12, !tbaa !40
  %58 = tail call double @llvm.fmuladd.f64(double %56, double %57, double %53)
  %59 = load double, ptr %35, align 8, !tbaa !31
  %60 = load double, ptr %19, align 8, !tbaa !31
  %61 = load double, ptr %36, align 8, !tbaa !31
  %62 = tail call double @llvm.fmuladd.f64(double %60, double %58, double %61)
  %63 = fmul double %59, %62
  store double %63, ptr %36, align 8, !tbaa !31
  %64 = getelementptr inbounds nuw i8, ptr %35, i64 8
  %65 = load double, ptr %64, align 8, !tbaa !31
  %66 = load double, ptr %20, align 8, !tbaa !31
  %67 = getelementptr inbounds nuw i8, ptr %36, i64 8
  %68 = load double, ptr %67, align 8, !tbaa !31
  %69 = tail call double @llvm.fmuladd.f64(double %66, double %58, double %68)
  %70 = fmul double %65, %69
  store double %70, ptr %67, align 8, !tbaa !31
  %71 = getelementptr inbounds double, ptr %35, i64 %.neg
  %72 = getelementptr inbounds double, ptr %35, i64 %27
  %73 = getelementptr inbounds double, ptr %35, i64 %.neg64
  %74 = getelementptr inbounds double, ptr %35, i64 %50
  br label %75

75:                                               ; preds = %WebRates.exit.critedge, %75
  %76 = phi i1 [ true, %WebRates.exit.critedge ], [ false, %75 ]
  %.06065 = phi i64 [ 0, %WebRates.exit.critedge ], [ 1, %75 ]
  %77 = getelementptr inbounds nuw double, ptr %35, i64 %.06065
  %78 = load double, ptr %77, align 8, !tbaa !31
  %79 = getelementptr inbounds nuw double, ptr %71, i64 %.06065
  %80 = load double, ptr %79, align 8, !tbaa !31
  %81 = fsub double %78, %80
  %82 = getelementptr inbounds nuw double, ptr %72, i64 %.06065
  %83 = load double, ptr %82, align 8, !tbaa !31
  %84 = fsub double %83, %78
  %85 = getelementptr inbounds nuw double, ptr %73, i64 %.06065
  %86 = load double, ptr %85, align 8, !tbaa !31
  %87 = fsub double %78, %86
  %88 = getelementptr inbounds nuw double, ptr %74, i64 %.06065
  %89 = load double, ptr %88, align 8, !tbaa !31
  %90 = fsub double %89, %78
  %91 = getelementptr inbounds nuw [2 x double], ptr %21, i64 0, i64 %.06065
  %92 = load double, ptr %91, align 8, !tbaa !31
  %93 = fsub double %84, %81
  %94 = getelementptr inbounds nuw [2 x double], ptr %22, i64 0, i64 %.06065
  %95 = load double, ptr %94, align 8, !tbaa !31
  %96 = fsub double %90, %87
  %97 = fmul double %95, %96
  %98 = tail call double @llvm.fmuladd.f64(double %92, double %93, double %97)
  %99 = getelementptr inbounds nuw double, ptr %36, i64 %.06065
  %100 = load double, ptr %99, align 8, !tbaa !31
  %101 = fadd double %100, %98
  %102 = getelementptr inbounds nuw double, ptr %51, i64 %.06065
  store double %101, ptr %102, align 8, !tbaa !31
  br i1 %76, label %75, label %103

103:                                              ; preds = %75
  %104 = add nuw nsw i64 %.066, 1
  %exitcond.not = icmp eq i64 %104, 20
  br i1 %exitcond.not, label %105, label %30

105:                                              ; preds = %103
  %106 = add nuw nsw i64 %.05967, 1
  %exitcond68.not = icmp eq i64 %106, 20
  br i1 %exitcond68.not, label %107, label %23

107:                                              ; preds = %105
  ret void
}